(dp0
S'METTS MARK'
p1
(dp2
S'salary'
p3
F365788.0
sS'to_messages'
p4
F807.0
sS'deferral_payments'
p5
F0.0
sS'fraction_to_poi'
p6
F0.034482758620689655
sS'total_payments'
p7
F1061827.0
sS'fraction_from_poi'
p8
F0.04708798017348203
sS'bonus'
p9
F600000.0
sS'email_address'
p10
S'mark.metts@enron.com'
p11
sS'total_stock_value'
p12
F585062.0
sS'shared_receipt_with_poi'
p13
F702.0
sS'from_poi_to_this_person'
p14
F38.0
sS'exercised_stock_options'
p15
F0.0
sS'from_messages'
p16
F29.0
sS'other'
p17
F1740.0
sS'from_this_person_to_poi'
p18
F1.0
sS'poi'
p19
I00
sS'deferred_income'
p20
F0.0
sS'expenses'
p21
F94299.0
sS'restricted_stock'
p22
F585062.0
sS'long_term_incentive'
p23
F0.0
ssS'BAXTER JOHN C'
p24
(dp25
g3
F267102.0
sg4
F0.0
sg5
F1295738.0
sg6
F0.0
sg7
F5634343.0
sg8
F0.0
sg9
F1200000.0
sg10
I0
sg12
F10623258.0
sg13
F0.0
sg14
F0.0
sg15
F6680544.0
sg16
F0.0
sg17
F2660303.0
sg18
F0.0
sg19
I00
sg20
F-1386055.0
sg21
F11200.0
sg22
F3942714.0
sg23
F1586055.0
ssS'ELLIOTT STEVEN'
p26
(dp27
g3
F170941.0
sg4
F0.0
sg5
F0.0
sg6
F0.0
sg7
F211725.0
sg8
F0.0
sg9
F350000.0
sg10
S'steven.elliott@enron.com'
p28
sg12
F6678735.0
sg13
F0.0
sg14
F0.0
sg15
F4890344.0
sg16
F0.0
sg17
F12961.0
sg18
F0.0
sg19
I00
sg20
F-400729.0
sg21
F78552.0
sg22
F1788391.0
sg23
F0.0
ssS'CORDES WILLIAM R'
p29
(dp30
g3
F0.0
sg4
F764.0
sg5
F0.0
sg6
F0.0
sg7
F0.0
sg8
F0.013089005235602094
sg9
F0.0
sg10
S'bill.cordes@enron.com'
p31
sg12
F1038185.0
sg13
F58.0
sg14
F10.0
sg15
F651850.0
sg16
F12.0
sg17
F0.0
sg18
F0.0
sg19
I00
sg20
F0.0
sg21
F0.0
sg22
F386335.0
sg23
F0.0
ssS'HANNON KEVIN P'
p32
(dp33
g3
F243293.0
sg4
F1045.0
sg5
F0.0
sg6
F0.65625
sg7
F288682.0
sg8
F0.03062200956937799
sg9
F1500000.0
sg10
S'kevin.hannon@enron.com'
p34
sg12
F6391065.0
sg13
F1035.0
sg14
F32.0
sg15
F5538001.0
sg16
F32.0
sg17
F11350.0
sg18
F21.0
sg19
I01
sg20
F-3117011.0
sg21
F34039.0
sg22
F853064.0
sg23
F1617011.0
ssS'MORDAUNT KRISTINA M'
p35
(dp36
g3
F267093.0
sg4
F0.0
sg5
F0.0
sg6
F0.0
sg7
F628522.0
sg8
F0.0
sg9
F325000.0
sg10
S'kristina.mordaunt@enron.com'
p37
sg12
F208510.0
sg13
F0.0
sg14
F0.0
sg15
F0.0
sg16
F0.0
sg17
F1411.0
sg18
F0.0
sg19
I00
sg20
F0.0
sg21
F35018.0
sg22
F208510.0
sg23
F0.0
ssS'MEYER ROCKFORD G'
p38
(dp39
g3
F0.0
sg4
F232.0
sg5
F1848227.0
sg6
F0.0
sg7
F1848227.0
sg8
F0.0
sg9
F0.0
sg10
S'rockford.meyer@enron.com'
p40
sg12
F955873.0
sg13
F22.0
sg14
F0.0
sg15
F493489.0
sg16
F28.0
sg17
F0.0
sg18
F0.0
sg19
I00
sg20
F0.0
sg21
F0.0
sg22
F462384.0
sg23
F0.0
ssS'MCMAHON JEFFREY'
p41
(dp42
g3
F370448.0
sg4
F2355.0
sg5
F0.0
sg6
F0.5416666666666666
sg7
F4099771.0
sg8
F0.024628450106157114
sg9
F2600000.0
sg10
S'jeffrey.mcmahon@enron.com'
p43
sg12
F1662855.0
sg13
F2228.0
sg14
F58.0
sg15
F1104054.0
sg16
F48.0
sg17
F297353.0
sg18
F26.0
sg19
I00
sg20
F0.0
sg21
F137108.0
sg22
F558801.0
sg23
F694862.0
ssS'HORTON STANLEY C'
p44
(dp45
g3
F0.0
sg4
F2350.0
sg5
F3131860.0
sg6
F0.013979496738117428
sg7
F3131860.0
sg8
F0.01872340425531915
sg9
F0.0
sg10
S'stanley.horton@enron.com'
p46
sg12
F7256648.0
sg13
F1074.0
sg14
F44.0
sg15
F5210569.0
sg16
F1073.0
sg17
F0.0
sg18
F15.0
sg19
I00
sg20
F0.0
sg21
F0.0
sg22
F2046079.0
sg23
F0.0
ssS'PIPER GREGORY F'
p47
(dp48
g3
F197091.0
sg4
F1238.0
sg5
F1130036.0
sg6
F0.21621621621621623
sg7
F1737629.0
sg8
F0.049273021001615507
sg9
F400000.0
sg10
S'greg.piper@enron.com'
p49
sg12
F880290.0
sg13
F742.0
sg14
F61.0
sg15
F880290.0
sg16
F222.0
sg17
F778.0
sg18
F48.0
sg19
I00
sg20
F-33333.0
sg21
F43057.0
sg22
F409554.0
sg23
F0.0
ssS'HUMPHREY GENE E'
p50
(dp51
g3
F130724.0
sg4
F128.0
sg5
F2964506.0
sg6
F1.0
sg7
F3100224.0
sg8
F0.078125
sg9
F0.0
sg10
S'gene.humphrey@enron.com'
p52
sg12
F2282768.0
sg13
F119.0
sg14
F10.0
sg15
F2282768.0
sg16
F17.0
sg17
F0.0
sg18
F17.0
sg19
I00
sg20
F0.0
sg21
F4994.0
sg22
F0.0
sg23
F0.0
ssS'UMANOFF ADAM S'
p53
(dp54
g3
F288589.0
sg4
F111.0
sg5
F0.0
sg6
F0.0
sg7
F1130461.0
sg8
F0.10810810810810811
sg9
F788750.0
sg10
S'adam.umanoff@enron.com'
p55
sg12
F0.0
sg13
F41.0
sg14
F12.0
sg15
F0.0
sg16
F18.0
sg17
F0.0
sg18
F0.0
sg19
I00
sg20
F0.0
sg21
F53122.0
sg22
F0.0
sg23
F0.0
ssS'BLACHMAN JEREMY M'
p56
(dp57
g3
F248546.0
sg4
F2475.0
sg5
F0.0
sg6
F0.14285714285714285
sg7
F2014835.0
sg8
F0.010101010101010102
sg9
F850000.0
sg10
S'jeremy.blachman@enron.com'
p58
sg12
F954354.0
sg13
F2326.0
sg14
F25.0
sg15
F765313.0
sg16
F14.0
sg17
F272.0
sg18
F2.0
sg19
I00
sg20
F0.0
sg21
F84208.0
sg22
F189041.0
sg23
F831809.0
ssS'SUNDE MARTIN'
p59
(dp60
g3
F257486.0
sg4
F2647.0
sg5
F0.0
sg6
F0.34210526315789475
sg7
F1545059.0
sg8
F0.013978088401964487
sg9
F700000.0
sg10
S'marty.sunde@enron.com'
p61
sg12
F698920.0
sg13
F2565.0
sg14
F37.0
sg15
F0.0
sg16
F38.0
sg17
F111122.0
sg18
F13.0
sg19
I00
sg20
F0.0
sg21
F0.0
sg22
F698920.0
sg23
F476451.0
ssS'GIBBS DANA R'
p62
(dp63
g3
F0.0
sg4
F169.0
sg5
F504610.0
sg6
F0.0
sg7
F966522.0
sg8
F0.0
sg9
F0.0
sg10
S'dana.gibbs@enron.com'
p64
sg12
F2218275.0
sg13
F23.0
sg14
F0.0
sg15
F2218275.0
sg16
F12.0
sg17
F0.0
sg18
F0.0
sg19
I00
sg20
F0.0
sg21
F0.0
sg22
F0.0
sg23
F461912.0
ssS'LOWRY CHARLES P'
p65
(dp66
g3
F0.0
sg4
F0.0
sg5
F0.0
sg6
F0.0
sg7
F0.0
sg8
F0.0
sg9
F0.0
sg10
I0
sg12
F372205.0
sg13
F0.0
sg14
F0.0
sg15
F372205.0
sg16
F0.0
sg17
F0.0
sg18
F0.0
sg19
I00
sg20
F0.0
sg21
F0.0
sg22
F153686.0
sg23
F0.0
ssS'COLWELL WESLEY'
p67
(dp68
g3
F288542.0
sg4
F1758.0
sg5
F27610.0
sg6
F0.275
sg7
F1490344.0
sg8
F0.13651877133105803
sg9
F1200000.0
sg10
S'wes.colwell@enron.com'
p69
sg12
F698242.0
sg13
F1132.0
sg14
F240.0
sg15
F0.0
sg16
F40.0
sg17
F101740.0
sg18
F11.0
sg19
I01
sg20
F-144062.0
sg21
F16514.0
sg22
F698242.0
sg23
F0.0
ssS'MULLER MARK S'
p70
(dp71
g3
F251654.0
sg4
F136.0
sg5
F842924.0
sg6
F0.0
sg7
F3202070.0
sg8
F0.08823529411764706
sg9
F1100000.0
sg10
S's..muller@enron.com'
p72
sg12
F1416848.0
sg13
F114.0
sg14
F12.0
sg15
F1056320.0
sg16
F16.0
sg17
F947.0
sg18
F0.0
sg19
I00
sg20
F-719000.0
sg21
F0.0
sg22
F360528.0
sg23
F1725545.0
ssS'JACKSON CHARLENE R'
p73
(dp74
g3
F288558.0
sg4
F258.0
sg5
F0.0
sg6
F0.3392857142857143
sg7
F551174.0
sg8
F0.09689922480620156
sg9
F250000.0
sg10
S'charlene.jackson@enron.com'
p75
sg12
F725735.0
sg13
F117.0
sg14
F25.0
sg15
F185063.0
sg16
F56.0
sg17
F2435.0
sg18
F19.0
sg19
I00
sg20
F0.0
sg21
F10181.0
sg22
F540672.0
sg23
F0.0
ssS'WESTFAHL RICHARD K'
p76
(dp77
g3
F63744.0
sg4
F0.0
sg5
F0.0
sg6
F0.0
sg7
F762135.0
sg8
F0.0
sg9
F0.0
sg10
S'dick.westfahl@enron.com'
p78
sg12
F384930.0
sg13
F0.0
sg14
F0.0
sg15
F0.0
sg16
F0.0
sg17
F401130.0
sg18
F0.0
sg19
I00
sg20
F-10800.0
sg21
F51870.0
sg22
F384930.0
sg23
F256191.0
ssS'WALTERS GARETH W'
p79
(dp80
g3
F0.0
sg4
F0.0
sg5
F53625.0
sg6
F0.0
sg7
F87410.0
sg8
F0.0
sg9
F0.0
sg10
I0
sg12
F1030329.0
sg13
F0.0
sg14
F0.0
sg15
F1030329.0
sg16
F0.0
sg17
F0.0
sg18
F0.0
sg19
I00
sg20
F0.0
sg21
F33785.0
sg22
F0.0
sg23
F0.0
ssS'WALLS JR ROBERT H'
p81
(dp82
g3
F357091.0
sg4
F671.0
sg5
F0.0
sg6
F0.0
sg7
F1798780.0
sg8
F0.02533532041728763
sg9
F850000.0
sg10
S'rob.walls@enron.com'
p83
sg12
F5898997.0
sg13
F215.0
sg14
F17.0
sg15
F4346544.0
sg16
F146.0
sg17
F2.0
sg18
F0.0
sg19
I00
sg20
F0.0
sg21
F50936.0
sg22
F1552453.0
sg23
F540751.0
ssS'KITCHEN LOUISE'
p84
(dp85
g3
F271442.0
sg4
F8305.0
sg5
F0.0
sg6
F0.11226851851851852
sg7
F3471141.0
sg8
F0.030222757375075255
sg9
F3100000.0
sg10
S'louise.kitchen@enron.com'
p86
sg12
F547143.0
sg13
F3669.0
sg14
F251.0
sg15
F81042.0
sg16
F1728.0
sg17
F93925.0
sg18
F194.0
sg19
I00
sg20
F0.0
sg21
F5774.0
sg22
F466101.0
sg23
F0.0
ssS'CHAN RONNIE'
p87
(dp88
g3
F0.0
sg4
F0.0
sg5
F0.0
sg6
F0.0
sg7
F0.0
sg8
F0.0
sg9
F0.0
sg10
I0
sg12
F0.0
sg13
F0.0
sg14
F0.0
sg15
F0.0
sg16
F0.0
sg17
F0.0
sg18
F0.0
sg19
I00
sg20
F-98784.0
sg21
F0.0
sg22
F32460.0
sg23
F0.0
ssS'BELFER ROBERT'
p89
(dp90
g3
F0.0
sg4
F0.0
sg5
F-102500.0
sg6
F0.0
sg7
F102500.0
sg8
F0.0
sg9
F0.0
sg10
I0
sg12
F-44093.0
sg13
F0.0
sg14
F0.0
sg15
F3285.0
sg16
F0.0
sg17
F0.0
sg18
F0.0
sg19
I00
sg20
F0.0
sg21
F0.0
sg22
F0.0
sg23
F0.0
ssS'SHANKMAN JEFFREY A'
p91
(dp92
g3
F304110.0
sg4
F3221.0
sg5
F0.0
sg6
F0.030958597538232
sg7
F3038702.0
sg8
F0.029183483390251473
sg9
F2000000.0
sg10
S'jeffrey.shankman@enron.com'
p93
sg12
F2072035.0
sg13
F1730.0
sg14
F94.0
sg15
F1441898.0
sg16
F2681.0
sg17
F1191.0
sg18
F83.0
sg19
I00
sg20
F0.0
sg21
F178979.0
sg22
F630137.0
sg23
F554422.0
ssS'WODRASKA JOHN'
p94
(dp95
g3
F0.0
sg4
F0.0
sg5
F0.0
sg6
F0.0
sg7
F189583.0
sg8
F0.0
sg9
F0.0
sg10
S'john.wodraska@enron.com'
p96
sg12
F0.0
sg13
F0.0
sg14
F0.0
sg15
F0.0
sg16
F0.0
sg17
F189583.0
sg18
F0.0
sg19
I00
sg20
F0.0
sg21
F0.0
sg22
F0.0
sg23
F0.0
ssS'BERGSIEKER RICHARD P'
p97
(dp98
g3
F187922.0
sg4
F383.0
sg5
F0.0
sg6
F0.0
sg7
F618850.0
sg8
F0.010443864229765013
sg9
F250000.0
sg10
S'rick.bergsieker@enron.com'
p99
sg12
F659249.0
sg13
F233.0
sg14
F4.0
sg15
F0.0
sg16
F59.0
sg17
F427316.0
sg18
F0.0
sg19
I00
sg20
F-485813.0
sg21
F59175.0
sg22
F659249.0
sg23
F180250.0
ssS'URQUHART JOHN A'
p100
(dp101
g3
F0.0
sg4
F0.0
sg5
F0.0
sg6
F0.0
sg7
F228656.0
sg8
F0.0
sg9
F0.0
sg10
I0
sg12
F0.0
sg13
F0.0
sg14
F0.0
sg15
F0.0
sg16
F0.0
sg17
F0.0
sg18
F0.0
sg19
I00
sg20
F-36666.0
sg21
F228656.0
sg22
F0.0
sg23
F0.0
ssS'BIBI PHILIPPE A'
p102
(dp103
g3
F213625.0
sg4
F1607.0
sg5
F0.0
sg6
F0.2
sg7
F2047593.0
sg8
F0.01431238332296204
sg9
F1000000.0
sg10
S'philippe.bibi@enron.com'
p104
sg12
F1843816.0
sg13
F1336.0
sg14
F23.0
sg15
F1465734.0
sg16
F40.0
sg17
F425688.0
sg18
F8.0
sg19
I00
sg20
F0.0
sg21
F38559.0
sg22
F378082.0
sg23
F369721.0
ssS'PIRO JIM'
p105
(dp106
g3
F0.0
sg4
F58.0
sg5
F0.0
sg6
F0.0625
sg7
F0.0
sg8
F0.0
sg9
F0.0
sg10
S'jim.piro@enron.com'
p107
sg12
F47304.0
sg13
F3.0
sg14
F0.0
sg15
F0.0
sg16
F16.0
sg17
F0.0
sg18
F1.0
sg19
I00
sg20
F0.0
sg21
F0.0
sg22
F47304.0
sg23
F0.0
ssS'RIEKER PAULA H'
p108
(dp109
g3
F249201.0
sg4
F1328.0
sg5
F214678.0
sg6
F0.5853658536585366
sg7
F1099100.0
sg8
F0.02635542168674699
sg9
F700000.0
sg10
S'paula.rieker@enron.com'
p110
sg12
F1918887.0
sg13
F1258.0
sg14
F35.0
sg15
F1635238.0
sg16
F82.0
sg17
F1950.0
sg18
F48.0
sg19
I01
sg20
F-100000.0
sg21
F33271.0
sg22
F283649.0
sg23
F0.0
ssS'WHALEY DAVID A'
p111
(dp112
g3
F0.0
sg4
F0.0
sg5
F0.0
sg6
F0.0
sg7
F0.0
sg8
F0.0
sg9
F0.0
sg10
I0
sg12
F98718.0
sg13
F0.0
sg14
F0.0
sg15
F98718.0
sg16
F0.0
sg17
F0.0
sg18
F0.0
sg19
I00
sg20
F0.0
sg21
F0.0
sg22
F0.0
sg23
F0.0
ssS'BECK SALLY W'
p113
(dp114
g3
F231330.0
sg4
F7315.0
sg5
F0.0
sg6
F0.08887865530739121
sg7
F969068.0
sg8
F0.01968557758031442
sg9
F700000.0
sg10
S'sally.beck@enron.com'
p115
sg12
F126027.0
sg13
F2639.0
sg14
F144.0
sg15
F0.0
sg16
F4343.0
sg17
F566.0
sg18
F386.0
sg19
I00
sg20
F0.0
sg21
F37172.0
sg22
F126027.0
sg23
F0.0
ssS'HAUG DAVID L'
p116
(dp117
g3
F0.0
sg4
F573.0
sg5
F0.0
sg6
F0.3684210526315789
sg7
F475.0
sg8
F0.006980802792321117
sg9
F0.0
sg10
S'david.haug@enron.com'
p118
sg12
F2217299.0
sg13
F471.0
sg14
F4.0
sg15
F0.0
sg16
F19.0
sg17
F0.0
sg18
F7.0
sg19
I00
sg20
F0.0
sg21
F475.0
sg22
F2217299.0
sg23
F0.0
ssS'ECHOLS JOHN B'
p119
(dp120
g3
F182245.0
sg4
F0.0
sg5
F0.0
sg6
F0.0
sg7
F2692324.0
sg8
F0.0
sg9
F200000.0
sg10
S'john.echols@enron.com'
p121
sg12
F1008941.0
sg13
F0.0
sg14
F0.0
sg15
F601438.0
sg16
F0.0
sg17
F53775.0
sg18
F0.0
sg19
I00
sg20
F0.0
sg21
F21530.0
sg22
F407503.0
sg23
F2234774.0
ssS'MENDELSOHN JOHN'
p122
(dp123
g3
F0.0
sg4
F0.0
sg5
F0.0
sg6
F0.0
sg7
F148.0
sg8
F0.0
sg9
F0.0
sg10
I0
sg12
F0.0
sg13
F0.0
sg14
F0.0
sg15
F0.0
sg16
F0.0
sg17
F0.0
sg18
F0.0
sg19
I00
sg20
F-103750.0
sg21
F148.0
sg22
F0.0
sg23
F0.0
ssS'HICKERSON GARY J'
p124
(dp125
g3
F211788.0
sg4
F1320.0
sg5
F0.0
sg6
F0.037037037037037035
sg7
F2081796.0
sg8
F0.030303030303030304
sg9
F1700000.0
sg10
S'gary.hickerson@enron.com'
p126
sg12
F441096.0
sg13
F900.0
sg14
F40.0
sg15
F0.0
sg16
F27.0
sg17
F1936.0
sg18
F1.0
sg19
I00
sg20
F0.0
sg21
F98849.0
sg22
F441096.0
sg23
F69223.0
ssS'CLINE KENNETH W'
p127
(dp128
g3
F0.0
sg4
F0.0
sg5
F0.0
sg6
F0.0
sg7
F0.0
sg8
F0.0
sg9
F0.0
sg10
I0
sg12
F189518.0
sg13
F0.0
sg14
F0.0
sg15
F0.0
sg16
F0.0
sg17
F0.0
sg18
F0.0
sg19
I00
sg20
F0.0
sg21
F0.0
sg22
F662086.0
sg23
F0.0
ssS'LEWIS RICHARD'
p129
(dp130
g3
F0.0
sg4
F952.0
sg5
F0.0
sg6
F0.0
sg7
F0.0
sg8
F0.01050420168067227
sg9
F0.0
sg10
S'richard.lewis@enron.com'
p131
sg12
F850477.0
sg13
F739.0
sg14
F10.0
sg15
F850477.0
sg16
F26.0
sg17
F0.0
sg18
F0.0
sg19
I00
sg20
F0.0
sg21
F0.0
sg22
F0.0
sg23
F0.0
ssS'HAYES ROBERT E'
p132
(dp133
g3
F0.0
sg4
F504.0
sg5
F7961.0
sg6
F0.0
sg7
F7961.0
sg8
F0.031746031746031744
sg9
F0.0
sg10
S'robert.hayes@enron.com'
p134
sg12
F151418.0
sg13
F50.0
sg14
F16.0
sg15
F0.0
sg16
F12.0
sg17
F0.0
sg18
F0.0
sg19
I00
sg20
F0.0
sg21
F0.0
sg22
F151418.0
sg23
F0.0
ssS'KOPPER MICHAEL J'
p135
(dp136
g3
F224305.0
sg4
F0.0
sg5
F0.0
sg6
F0.0
sg7
F2652612.0
sg8
F0.0
sg9
F800000.0
sg10
S'michael.kopper@enron.com'
p137
sg12
F985032.0
sg13
F0.0
sg14
F0.0
sg15
F0.0
sg16
F0.0
sg17
F907502.0
sg18
F0.0
sg19
I01
sg20
F0.0
sg21
F118134.0
sg22
F985032.0
sg23
F602671.0
ssS'LEFF DANIEL P'
p138
(dp139
g3
F273746.0
sg4
F2822.0
sg5
F0.0
sg6
F0.2222222222222222
sg7
F2664228.0
sg8
F0.02374202693125443
sg9
F1000000.0
sg10
S'dan.leff@enron.com'
p140
sg12
F360528.0
sg13
F2672.0
sg14
F67.0
sg15
F0.0
sg16
F63.0
sg17
F3083.0
sg18
F14.0
sg19
I00
sg20
F0.0
sg21
F0.0
sg22
F360528.0
sg23
F1387399.0
ssS'LAVORATO JOHN J'
p141
(dp142
g3
F339288.0
sg4
F7259.0
sg5
F0.0
sg6
F0.15899419729206962
sg7
F10425757.0
sg8
F0.07273729163796666
sg9
F8000000.0
sg10
S'john.lavorato@enron.com'
p143
sg12
F5167144.0
sg13
F3962.0
sg14
F528.0
sg15
F4158995.0
sg16
F2585.0
sg17
F1552.0
sg18
F411.0
sg19
I00
sg20
F0.0
sg21
F49537.0
sg22
F1008149.0
sg23
F2035380.0
ssS'BERBERIAN DAVID'
p144
(dp145
g3
F216582.0
sg4
F0.0
sg5
F0.0
sg6
F0.0
sg7
F228474.0
sg8
F0.0
sg9
F0.0
sg10
S'david.berberian@enron.com'
p146
sg12
F2493616.0
sg13
F0.0
sg14
F0.0
sg15
F1624396.0
sg16
F0.0
sg17
F0.0
sg18
F0.0
sg19
I00
sg20
F0.0
sg21
F11892.0
sg22
F869220.0
sg23
F0.0
ssS'DETMERING TIMOTHY J'
p147
(dp148
g3
F210500.0
sg4
F0.0
sg5
F875307.0
sg6
F0.0
sg7
F1204583.0
sg8
F0.0
sg9
F425000.0
sg10
S'timothy.detmering@enron.com'
p149
sg12
F2027865.0
sg13
F0.0
sg14
F0.0
sg15
F2027865.0
sg16
F0.0
sg17
F1105.0
sg18
F0.0
sg19
I00
sg20
F-775241.0
sg21
F52255.0
sg22
F315068.0
sg23
F415657.0
ssS'WAKEHAM JOHN'
p150
(dp151
g3
F0.0
sg4
F0.0
sg5
F0.0
sg6
F0.0
sg7
F213071.0
sg8
F0.0
sg9
F0.0
sg10
I0
sg12
F0.0
sg13
F0.0
sg14
F0.0
sg15
F0.0
sg16
F0.0
sg17
F0.0
sg18
F0.0
sg19
I00
sg20
F0.0
sg21
F103773.0
sg22
F0.0
sg23
F0.0
ssS'POWERS WILLIAM'
p152
(dp153
g3
F0.0
sg4
F653.0
sg5
F0.0
sg6
F0.0
sg7
F0.0
sg8
F0.0
sg9
F0.0
sg10
S'ken.powers@enron.com'
p154
sg12
F0.0
sg13
F12.0
sg14
F0.0
sg15
F0.0
sg16
F26.0
sg17
F0.0
sg18
F0.0
sg19
I00
sg20
F-17500.0
sg21
F0.0
sg22
F0.0
sg23
F0.0
ssS'GOLD JOSEPH'
p155
(dp156
g3
F272880.0
sg4
F0.0
sg5
F0.0
sg6
F0.0
sg7
F2146973.0
sg8
F0.0
sg9
F750000.0
sg10
S'joe.gold@enron.com'
p157
sg12
F877611.0
sg13
F0.0
sg14
F0.0
sg15
F436515.0
sg16
F0.0
sg17
F819288.0
sg18
F0.0
sg19
I00
sg20
F0.0
sg21
F0.0
sg22
F441096.0
sg23
F304805.0
ssS'BANNANTINE JAMES M'
p158
(dp159
g3
F477.0
sg4
F566.0
sg5
F0.0
sg6
F0.0
sg7
F916197.0
sg8
F0.06890459363957598
sg9
F0.0
sg10
S'james.bannantine@enron.com'
p160
sg12
F5243487.0
sg13
F465.0
sg14
F39.0
sg15
F4046157.0
sg16
F29.0
sg17
F864523.0
sg18
F0.0
sg19
I00
sg20
F-5104.0
sg21
F56301.0
sg22
F1757552.0
sg23
F0.0
ssS'DUNCAN JOHN H'
p161
(dp162
g3
F0.0
sg4
F0.0
sg5
F0.0
sg6
F0.0
sg7
F77492.0
sg8
F0.0
sg9
F0.0
sg10
I0
sg12
F371750.0
sg13
F0.0
sg14
F0.0
sg15
F371750.0
sg16
F0.0
sg17
F0.0
sg18
F0.0
sg19
I00
sg20
F-25000.0
sg21
F0.0
sg22
F0.0
sg23
F0.0
ssS'SHAPIRO RICHARD S'
p163
(dp164
g3
F269076.0
sg4
F15149.0
sg5
F0.0
sg6
F0.053497942386831275
sg7
F1057548.0
sg8
F0.0048848108786058485
sg9
F650000.0
sg10
S'richard.shapiro@enron.com'
p165
sg12
F987001.0
sg13
F4527.0
sg14
F74.0
sg15
F607837.0
sg16
F1215.0
sg17
F705.0
sg18
F65.0
sg19
I00
sg20
F0.0
sg21
F137767.0
sg22
F379164.0
sg23
F0.0
ssS'SHERRIFF JOHN R'
p166
(dp167
g3
F428780.0
sg4
F3187.0
sg5
F0.0
sg6
F0.25
sg7
F4335388.0
sg8
F0.008785691873235017
sg9
F1500000.0
sg10
S'john.sherriff@enron.com'
p168
sg12
F3128982.0
sg13
F2103.0
sg14
F28.0
sg15
F1835558.0
sg16
F92.0
sg17
F1852186.0
sg18
F23.0
sg19
I00
sg20
F0.0
sg21
F0.0
sg22
F1293424.0
sg23
F554422.0
ssS'SHELBY REX'
p169
(dp170
g3
F211844.0
sg4
F225.0
sg5
F0.0
sg6
F0.358974358974359
sg7
F2003885.0
sg8
F0.057777777777777775
sg9
F200000.0
sg10
S'rex.shelby@enron.com'
p171
sg12
F2493616.0
sg13
F91.0
sg14
F13.0
sg15
F1624396.0
sg16
F39.0
sg17
F1573324.0
sg18
F14.0
sg19
I01
sg20
F-4167.0
sg21
F22884.0
sg22
F869220.0
sg23
F0.0
ssS'LEMAISTRE CHARLES'
p172
(dp173
g3
F0.0
sg4
F0.0
sg5
F0.0
sg6
F0.0
sg7
F87492.0
sg8
F0.0
sg9
F0.0
sg10
I0
sg12
F412878.0
sg13
F0.0
sg14
F0.0
sg15
F412878.0
sg16
F0.0
sg17
F0.0
sg18
F0.0
sg19
I00
sg20
F-25000.0
sg21
F0.0
sg22
F0.0
sg23
F0.0
ssS'DEFFNER JOSEPH M'
p174
(dp175
g3
F206121.0
sg4
F714.0
sg5
F0.0
sg6
F0.05405405405405406
sg7
F1208649.0
sg8
F0.16106442577030813
sg9
F600000.0
sg10
S'joseph.deffner@enron.com'
p176
sg12
F159211.0
sg13
F552.0
sg14
F115.0
sg15
F17378.0
sg16
F74.0
sg17
F25553.0
sg18
F4.0
sg19
I00
sg20
F0.0
sg21
F41626.0
sg22
F141833.0
sg23
F335349.0
ssS'KISHKILL JOSEPH G'
p177
(dp178
g3
F174246.0
sg4
F0.0
sg5
F0.0
sg6
F0.0
sg7
F704896.0
sg8
F0.0
sg9
F0.0
sg10
S'joe.kishkill@enron.com'
p179
sg12
F1034346.0
sg13
F0.0
sg14
F0.0
sg15
F0.0
sg16
F0.0
sg17
F465357.0
sg18
F0.0
sg19
I00
sg20
F-51042.0
sg21
F116335.0
sg22
F1034346.0
sg23
F0.0
ssS'WHALLEY LAWRENCE G'
p180
(dp181
g3
F510364.0
sg4
F6019.0
sg5
F0.0
sg6
F0.04316546762589928
sg7
F4677574.0
sg8
F0.03090214321315833
sg9
F3000000.0
sg10
S'greg.whalley@enron.com'
p182
sg12
F6079137.0
sg13
F3920.0
sg14
F186.0
sg15
F3282960.0
sg16
F556.0
sg17
F301026.0
sg18
F24.0
sg19
I00
sg20
F0.0
sg21
F57838.0
sg22
F2796177.0
sg23
F808346.0
ssS'MCCARTY DANNY J'
p183
(dp184
g3
F0.0
sg4
F1433.0
sg5
F0.0
sg6
F0.009302325581395349
sg7
F0.0
sg8
F0.017445917655268667
sg9
F0.0
sg10
S'danny.mccarty@enron.com'
p185
sg12
F758931.0
sg13
F508.0
sg14
F25.0
sg15
F664375.0
sg16
F215.0
sg17
F0.0
sg18
F2.0
sg19
I00
sg20
F0.0
sg21
F0.0
sg22
F94556.0
sg23
F0.0
ssS'MCCONNELL MICHAEL S'
p186
(dp187
g3
F365038.0
sg4
F3329.0
sg5
F0.0
sg6
F0.07075127644055434
sg7
F2101364.0
sg8
F0.02763592670471613
sg9
F1100000.0
sg10
S'mike.mcconnell@enron.com'
p188
sg12
F3101279.0
sg13
F2189.0
sg14
F92.0
sg15
F1623010.0
sg16
F2742.0
sg17
F540.0
sg18
F194.0
sg19
I00
sg20
F0.0
sg21
F81364.0
sg22
F1478269.0
sg23
F554422.0
ssS'DELAINEY DAVID W'
p189
(dp190
g3
F365163.0
sg4
F3093.0
sg5
F0.0
sg6
F0.198435972629521
sg7
F4747979.0
sg8
F0.02133850630455868
sg9
F3000000.0
sg10
S'david.delainey@enron.com'
p191
sg12
F3614261.0
sg13
F2097.0
sg14
F66.0
sg15
F2291113.0
sg16
F3069.0
sg17
F1661.0
sg18
F609.0
sg19
I01
sg20
F0.0
sg21
F86174.0
sg22
F1323148.0
sg23
F1294981.0
ssS'SULLIVAN-SHAKLOVITZ COLLEEN'
p192
(dp193
g3
F162779.0
sg4
F0.0
sg5
F181993.0
sg6
F0.0
sg7
F999356.0
sg8
F0.0
sg9
F100000.0
sg10
I0
sg12
F1362375.0
sg13
F0.0
sg14
F0.0
sg15
F1362375.0
sg16
F0.0
sg17
F162.0
sg18
F0.0
sg19
I00
sg20
F0.0
sg21
F0.0
sg22
F0.0
sg23
F554422.0
ssS'WROBEL BRUCE'
p194
(dp195
g3
F0.0
sg4
F0.0
sg5
F0.0
sg6
F0.0
sg7
F0.0
sg8
F0.0
sg9
F0.0
sg10
I0
sg12
F139130.0
sg13
F0.0
sg14
F0.0
sg15
F139130.0
sg16
F0.0
sg17
F0.0
sg18
F0.0
sg19
I00
sg20
F0.0
sg21
F0.0
sg22
F0.0
sg23
F0.0
ssS'LINDHOLM TOD A'
p196
(dp197
g3
F236457.0
sg4
F0.0
sg5
F204075.0
sg6
F0.0
sg7
F875889.0
sg8
F0.0
sg9
F200000.0
sg10
S'tod.lindholm@enron.com'
p198
sg12
F3064208.0
sg13
F0.0
sg14
F0.0
sg15
F2549361.0
sg16
F0.0
sg17
F2630.0
sg18
F0.0
sg19
I00
sg20
F0.0
sg21
F57727.0
sg22
F514847.0
sg23
F175000.0
ssS'MEYER JEROME J'
p199
(dp200
g3
F0.0
sg4
F0.0
sg5
F0.0
sg6
F0.0
sg7
F2151.0
sg8
F0.0
sg9
F0.0
sg10
I0
sg12
F0.0
sg13
F0.0
sg14
F0.0
sg15
F0.0
sg16
F0.0
sg17
F0.0
sg18
F0.0
sg19
I00
sg20
F-38346.0
sg21
F2151.0
sg22
F0.0
sg23
F0.0
ssS'LAY KENNETH L'
p201
(dp202
g3
F1072321.0
sg4
F4273.0
sg5
F202911.0
sg6
F0.4444444444444444
sg7
F103559793.0
sg8
F0.028785396676807865
sg9
F7000000.0
sg10
S'kenneth.lay@enron.com'
p203
sg12
F49110078.0
sg13
F2411.0
sg14
F123.0
sg15
F34348384.0
sg16
F36.0
sg17
F10359729.0
sg18
F16.0
sg19
I01
sg20
F-300000.0
sg21
F99832.0
sg22
F14761694.0
sg23
F3600000.0
ssS'BUTTS ROBERT H'
p204
(dp205
g3
F261516.0
sg4
F0.0
sg5
F0.0
sg6
F0.0
sg7
F1271582.0
sg8
F0.0
sg9
F750000.0
sg10
S'bob.butts@enron.com'
p206
sg12
F417619.0
sg13
F0.0
sg14
F0.0
sg15
F0.0
sg16
F0.0
sg17
F150656.0
sg18
F0.0
sg19
I00
sg20
F-75000.0
sg21
F9410.0
sg22
F417619.0
sg23
F175000.0
ssS'OLSON CINDY K'
p207
(dp208
g3
F329078.0
sg4
F1184.0
sg5
F77716.0
sg6
F0.28846153846153844
sg7
F1321557.0
sg8
F0.016891891891891893
sg9
F750000.0
sg10
S'cindy.olson@enron.com'
p209
sg12
F2606763.0
sg13
F856.0
sg14
F20.0
sg15
F1637034.0
sg16
F52.0
sg17
F972.0
sg18
F15.0
sg19
I00
sg20
F0.0
sg21
F63791.0
sg22
F969729.0
sg23
F100000.0
ssS'MCDONALD REBECCA'
p210
(dp211
g3
F0.0
sg4
F894.0
sg5
F0.0
sg6
F0.07692307692307693
sg7
F0.0
sg8
F0.06040268456375839
sg9
F0.0
sg10
S'rebecca.mcdonald@enron.com'
p212
sg12
F1691366.0
sg13
F720.0
sg14
F54.0
sg15
F757301.0
sg16
F13.0
sg17
F0.0
sg18
F1.0
sg19
I00
sg20
F0.0
sg21
F0.0
sg22
F934065.0
sg23
F0.0
ssS'CUMBERLAND MICHAEL S'
p213
(dp214
g3
F184899.0
sg4
F0.0
sg5
F0.0
sg6
F0.0
sg7
F807956.0
sg8
F0.0
sg9
F325000.0
sg10
I0
sg12
F207940.0
sg13
F0.0
sg14
F0.0
sg15
F0.0
sg16
F0.0
sg17
F713.0
sg18
F0.0
sg19
I00
sg20
F0.0
sg21
F22344.0
sg22
F207940.0
sg23
F275000.0
ssS'GAHN ROBERT S'
p215
(dp216
g3
F192008.0
sg4
F0.0
sg5
F73122.0
sg6
F0.0
sg7
F900585.0
sg8
F0.0
sg9
F509870.0
sg10
I0
sg12
F318607.0
sg13
F0.0
sg14
F0.0
sg15
F83237.0
sg16
F0.0
sg17
F76547.0
sg18
F0.0
sg19
I00
sg20
F-1042.0
sg21
F50080.0
sg22
F235370.0
sg23
F0.0
ssS'MCCLELLAN GEORGE'
p217
(dp218
g3
F263413.0
sg4
F1744.0
sg5
F0.0
sg6
F0.0
sg7
F1318763.0
sg8
F0.02981651376146789
sg9
F900000.0
sg10
S'george.mcclellan@enron.com'
p219
sg12
F947861.0
sg13
F1469.0
sg14
F52.0
sg15
F506765.0
sg16
F49.0
sg17
F51587.0
sg18
F0.0
sg19
I00
sg20
F-125000.0
sg21
F228763.0
sg22
F441096.0
sg23
F0.0
ssS'HERMANN ROBERT J'
p220
(dp221
g3
F262663.0
sg4
F0.0
sg5
F0.0
sg6
F0.0
sg7
F1297461.0
sg8
F0.0
sg9
F700000.0
sg10
S'robert.hermann@enron.com'
p222
sg12
F668132.0
sg13
F0.0
sg14
F0.0
sg15
F187500.0
sg16
F0.0
sg17
F416441.0
sg18
F0.0
sg19
I00
sg20
F-280000.0
sg21
F48357.0
sg22
F480632.0
sg23
F150000.0
ssS'SCRIMSHAW MATTHEW'
p223
(dp224
g3
F0.0
sg4
F0.0
sg5
F0.0
sg6
F0.0
sg7
F0.0
sg8
F0.0
sg9
F0.0
sg10
S'matthew.scrimshaw@enron.com'
p225
sg12
F759557.0
sg13
F0.0
sg14
F0.0
sg15
F759557.0
sg16
F0.0
sg17
F0.0
sg18
F0.0
sg19
I00
sg20
F0.0
sg21
F0.0
sg22
F0.0
sg23
F0.0
ssS'GATHMANN WILLIAM D'
p226
(dp227
g3
F0.0
sg4
F0.0
sg5
F0.0
sg6
F0.0
sg7
F0.0
sg8
F0.0
sg9
F0.0
sg10
I0
sg12
F1945360.0
sg13
F0.0
sg14
F0.0
sg15
F1753766.0
sg16
F0.0
sg17
F0.0
sg18
F0.0
sg19
I00
sg20
F0.0
sg21
F0.0
sg22
F264013.0
sg23
F0.0
ssS'HAEDICKE MARK E'
p228
(dp229
g3
F374125.0
sg4
F4009.0
sg5
F2157527.0
sg6
F0.03142709943328181
sg7
F3859065.0
sg8
F0.04489897730107259
sg9
F1150000.0
sg10
S'mark.haedicke@enron.com'
p230
sg12
F803094.0
sg13
F1847.0
sg14
F180.0
sg15
F608750.0
sg16
F1941.0
sg17
F52382.0
sg18
F61.0
sg19
I00
sg20
F-934484.0
sg21
F76169.0
sg22
F524169.0
sg23
F983346.0
ssS'BOWEN JR RAYMOND M'
p231
(dp232
g3
F278601.0
sg4
F1858.0
sg5
F0.0
sg6
F0.5555555555555556
sg7
F2669589.0
sg8
F0.07534983853606028
sg9
F1350000.0
sg10
S'raymond.bowen@enron.com'
p233
sg12
F252055.0
sg13
F1593.0
sg14
F140.0
sg15
F0.0
sg16
F27.0
sg17
F1621.0
sg18
F15.0
sg19
I01
sg20
F-833.0
sg21
F65907.0
sg22
F252055.0
sg23
F974293.0
ssS'GILLIS JOHN'
p234
(dp235
g3
F0.0
sg4
F0.0
sg5
F0.0
sg6
F0.0
sg7
F0.0
sg8
F0.0
sg9
F0.0
sg10
I0
sg12
F85641.0
sg13
F0.0
sg14
F0.0
sg15
F9803.0
sg16
F0.0
sg17
F0.0
sg18
F0.0
sg19
I00
sg20
F0.0
sg21
F0.0
sg22
F75838.0
sg23
F0.0
ssS'FITZGERALD JAY L'
p236
(dp237
g3
F199157.0
sg4
F936.0
sg5
F0.0
sg6
F0.5
sg7
F1414857.0
sg8
F0.0010683760683760685
sg9
F350000.0
sg10
S'jay.fitzgerald@enron.com'
p238
sg12
F1621236.0
sg13
F723.0
sg14
F1.0
sg15
F664461.0
sg16
F16.0
sg17
F285414.0
sg18
F8.0
sg19
I00
sg20
F0.0
sg21
F23870.0
sg22
F956775.0
sg23
F556416.0
ssS'MORAN MICHAEL P'
p239
(dp240
g3
F0.0
sg4
F672.0
sg5
F0.0
sg6
F0.0
sg7
F0.0
sg8
F0.0
sg9
F0.0
sg10
S'michael.moran@enron.com'
p241
sg12
F221141.0
sg13
F127.0
sg14
F0.0
sg15
F59539.0
sg16
F19.0
sg17
F0.0
sg18
F0.0
sg19
I00
sg20
F0.0
sg21
F0.0
sg22
F161602.0
sg23
F0.0
ssS'REDMOND BRIAN L'
p242
(dp243
g3
F96840.0
sg4
F1671.0
sg5
F0.0
sg6
F0.22171945701357465
sg7
F111529.0
sg8
F0.12208258527827648
sg9
F0.0
sg10
S'brian.redmond@enron.com'
p244
sg12
F7890324.0
sg13
F1063.0
sg14
F204.0
sg15
F7509039.0
sg16
F221.0
sg17
F0.0
sg18
F49.0
sg19
I00
sg20
F0.0
sg21
F14689.0
sg22
F381285.0
sg23
F0.0
ssS'BAZELIDES PHILIP J'
p245
(dp246
g3
F80818.0
sg4
F0.0
sg5
F684694.0
sg6
F0.0
sg7
F860136.0
sg8
F0.0
sg9
F0.0
sg10
I0
sg12
F1599641.0
sg13
F0.0
sg14
F0.0
sg15
F1599641.0
sg16
F0.0
sg17
F874.0
sg18
F0.0
sg19
I00
sg20
F0.0
sg21
F0.0
sg22
F0.0
sg23
F93750.0
ssS'BELDEN TIMOTHY N'
p247
(dp248
g3
F213999.0
sg4
F7991.0
sg5
F2144013.0
sg6
F0.2231404958677686
sg7
F5501630.0
sg8
F0.028532098610937303
sg9
F5249999.0
sg10
S'tim.belden@enron.com'
p249
sg12
F1110705.0
sg13
F5521.0
sg14
F228.0
sg15
F953136.0
sg16
F484.0
sg17
F210698.0
sg18
F108.0
sg19
I01
sg20
F-2334434.0
sg21
F17355.0
sg22
F157569.0
sg23
F0.0
ssS'DURAN WILLIAM D'
p250
(dp251
g3
F210692.0
sg4
F904.0
sg5
F0.0
sg6
F0.25
sg7
F2093263.0
sg8
F0.1172566371681416
sg9
F750000.0
sg10
S'w.duran@enron.com'
p252
sg12
F1640910.0
sg13
F599.0
sg14
F106.0
sg15
F1451869.0
sg16
F12.0
sg17
F1568.0
sg18
F3.0
sg19
I00
sg20
F0.0
sg21
F25785.0
sg22
F189041.0
sg23
F1105218.0
ssS'THORN TERENCE H'
p253
(dp254
g3
F222093.0
sg4
F266.0
sg5
F16586.0
sg6
F0.0
sg7
F911453.0
sg8
F0.0
sg9
F0.0
sg10
S'terence.thorn@enron.com'
p255
sg12
F4817796.0
sg13
F73.0
sg14
F0.0
sg15
F4452476.0
sg16
F41.0
sg17
F426629.0
sg18
F0.0
sg19
I00
sg20
F0.0
sg21
F46145.0
sg22
F365320.0
sg23
F200000.0
ssS'FASTOW ANDREW S'
p256
(dp257
g3
F440698.0
sg4
F0.0
sg5
F0.0
sg6
F0.0
sg7
F2424083.0
sg8
F0.0
sg9
F1300000.0
sg10
S'andrew.fastow@enron.com'
p258
sg12
F1794412.0
sg13
F0.0
sg14
F0.0
sg15
F0.0
sg16
F0.0
sg17
F277464.0
sg18
F0.0
sg19
I01
sg20
F-1386055.0
sg21
F55921.0
sg22
F1794412.0
sg23
F1736055.0
ssS'FOY JOE'
p259
(dp260
g3
F0.0
sg4
F57.0
sg5
F181755.0
sg6
F0.0
sg7
F181755.0
sg8
F0.0
sg9
F0.0
sg10
S'tracy.foy@enron.com'
p261
sg12
F343434.0
sg13
F2.0
sg14
F0.0
sg15
F343434.0
sg16
F13.0
sg17
F0.0
sg18
F0.0
sg19
I00
sg20
F0.0
sg21
F0.0
sg22
F0.0
sg23
F0.0
ssS'CALGER CHRISTOPHER F'
p262
(dp263
g3
F240189.0
sg4
F2598.0
sg5
F0.0
sg6
F0.1736111111111111
sg7
F1639297.0
sg8
F0.07659738260200154
sg9
F1250000.0
sg10
S'christopher.calger@enron.com'
p264
sg12
F126027.0
sg13
F2188.0
sg14
F199.0
sg15
F0.0
sg16
F144.0
sg17
F486.0
sg18
F25.0
sg19
I01
sg20
F-262500.0
sg21
F35818.0
sg22
F126027.0
sg23
F375304.0
ssS'RICE KENNETH D'
p265
(dp266
g3
F420636.0
sg4
F905.0
sg5
F0.0
sg6
F0.2222222222222222
sg7
F505050.0
sg8
F0.04640883977900553
sg9
F1750000.0
sg10
S'ken.rice@enron.com'
p267
sg12
F22542539.0
sg13
F864.0
sg14
F42.0
sg15
F19794175.0
sg16
F18.0
sg17
F174839.0
sg18
F4.0
sg19
I01
sg20
F-3504386.0
sg21
F46950.0
sg22
F2748364.0
sg23
F1617011.0
ssS'KAMINSKI WINCENTY J'
p268
(dp269
g3
F275101.0
sg4
F4607.0
sg5
F0.0
sg6
F0.011901447661469933
sg7
F1086821.0
sg8
F0.008899500759713479
sg9
F400000.0
sg10
S'vince.kaminski@enron.com'
p270
sg12
F976037.0
sg13
F583.0
sg14
F41.0
sg15
F850010.0
sg16
F14368.0
sg17
F4669.0
sg18
F171.0
sg19
I00
sg20
F0.0
sg21
F83585.0
sg22
F126027.0
sg23
F323466.0
ssS'LOCKHART EUGENE E'
p271
(dp272
g3
F0.0
sg4
F0.0
sg5
F0.0
sg6
F0.0
sg7
F0.0
sg8
F0.0
sg9
F0.0
sg10
I0
sg12
F0.0
sg13
F0.0
sg14
F0.0
sg15
F0.0
sg16
F0.0
sg17
F0.0
sg18
F0.0
sg19
I00
sg20
F0.0
sg21
F0.0
sg22
F0.0
sg23
F0.0
ssS'COX DAVID'
p273
(dp274
g3
F314288.0
sg4
F102.0
sg5
F0.0
sg6
F0.12121212121212122
sg7
F1101393.0
sg8
F0.0
sg9
F800000.0
sg10
S'chip.cox@enron.com'
p275
sg12
F495633.0
sg13
F71.0
sg14
F0.0
sg15
F117551.0
sg16
F33.0
sg17
F494.0
sg18
F4.0
sg19
I00
sg20
F-41250.0
sg21
F27861.0
sg22
F378082.0
sg23
F0.0
ssS'OVERDYKE JR JERE C'
p276
(dp277
g3
F94941.0
sg4
F0.0
sg5
F0.0
sg6
F0.0
sg7
F249787.0
sg8
F0.0
sg9
F0.0
sg10
S'jere.overdyke@enron.com'
p278
sg12
F7307594.0
sg13
F0.0
sg14
F0.0
sg15
F5266578.0
sg16
F0.0
sg17
F176.0
sg18
F0.0
sg19
I00
sg20
F0.0
sg21
F18834.0
sg22
F2041016.0
sg23
F135836.0
ssS'PEREIRA PAULO V. FERRAZ'
p279
(dp280
g3
F0.0
sg4
F0.0
sg5
F0.0
sg6
F0.0
sg7
F27942.0
sg8
F0.0
sg9
F0.0
sg10
I0
sg12
F0.0
sg13
F0.0
sg14
F0.0
sg15
F0.0
sg16
F0.0
sg17
F0.0
sg18
F0.0
sg19
I00
sg20
F-101250.0
sg21
F27942.0
sg22
F0.0
sg23
F0.0
ssS'STABLER FRANK'
p281
(dp282
g3
F239502.0
sg4
F0.0
sg5
F0.0
sg6
F0.0
sg7
F1112087.0
sg8
F0.0
sg9
F500000.0
sg10
S'frank.stabler@enron.com'
p283
sg12
F511734.0
sg13
F0.0
sg14
F0.0
sg15
F0.0
sg16
F0.0
sg17
F356071.0
sg18
F0.0
sg19
I00
sg20
F0.0
sg21
F16514.0
sg22
F511734.0
sg23
F0.0
ssS'SKILLING JEFFREY K'
p284
(dp285
g3
F1111258.0
sg4
F3627.0
sg5
F0.0
sg6
F0.2777777777777778
sg7
F8682716.0
sg8
F0.0242624758753791
sg9
F5600000.0
sg10
S'jeff.skilling@enron.com'
p286
sg12
F26093672.0
sg13
F2042.0
sg14
F88.0
sg15
F19250000.0
sg16
F108.0
sg17
F22122.0
sg18
F30.0
sg19
I01
sg20
F0.0
sg21
F29336.0
sg22
F6843672.0
sg23
F1920000.0
ssS'BLAKE JR. NORMAN P'
p287
(dp288
g3
F0.0
sg4
F0.0
sg5
F0.0
sg6
F0.0
sg7
F1279.0
sg8
F0.0
sg9
F0.0
sg10
I0
sg12
F0.0
sg13
F0.0
sg14
F0.0
sg15
F0.0
sg16
F0.0
sg17
F0.0
sg18
F0.0
sg19
I00
sg20
F-113784.0
sg21
F1279.0
sg22
F0.0
sg23
F0.0
ssS'SHERRICK JEFFREY B'
p289
(dp290
g3
F0.0
sg4
F613.0
sg5
F0.0
sg6
F0.72
sg7
F0.0
sg8
F0.0636215334420881
sg9
F0.0
sg10
S'jeffrey.sherrick@enron.com'
p291
sg12
F1832468.0
sg13
F583.0
sg14
F39.0
sg15
F1426469.0
sg16
F25.0
sg17
F0.0
sg18
F18.0
sg19
I00
sg20
F0.0
sg21
F0.0
sg22
F405999.0
sg23
F0.0
ssS'PRENTICE JAMES'
p292
(dp293
g3
F0.0
sg4
F0.0
sg5
F564348.0
sg6
F0.0
sg7
F564348.0
sg8
F0.0
sg9
F0.0
sg10
S'james.prentice@enron.com'
p294
sg12
F1095040.0
sg13
F0.0
sg14
F0.0
sg15
F886231.0
sg16
F0.0
sg17
F0.0
sg18
F0.0
sg19
I00
sg20
F0.0
sg21
F0.0
sg22
F208809.0
sg23
F0.0
ssS'GRAY RODNEY'
p295
(dp296
g3
F6615.0
sg4
F0.0
sg5
F93585.0
sg6
F0.0
sg7
F1146658.0
sg8
F0.0
sg9
F0.0
sg10
I0
sg12
F0.0
sg13
F0.0
sg14
F0.0
sg15
F0.0
sg16
F0.0
sg17
F680833.0
sg18
F0.0
sg19
I00
sg20
F0.0
sg21
F0.0
sg22
F0.0
sg23
F365625.0
ssS'PICKERING MARK R'
p297
(dp298
g3
F655037.0
sg4
F898.0
sg5
F0.0
sg6
F0.0
sg7
F1386690.0
sg8
F0.0077951002227171495
sg9
F300000.0
sg10
S'mark.pickering@enron.com'
p299
sg12
F28798.0
sg13
F728.0
sg14
F7.0
sg15
F28798.0
sg16
F67.0
sg17
F0.0
sg18
F0.0
sg19
I00
sg20
F0.0
sg21
F31653.0
sg22
F0.0
sg23
F0.0
ssS'THE TRAVEL AGENCY IN THE PARK'
p300
(dp301
g3
F0.0
sg4
F0.0
sg5
F0.0
sg6
F0.0
sg7
F362096.0
sg8
F0.0
sg9
F0.0
sg10
I0
sg12
F0.0
sg13
F0.0
sg14
F0.0
sg15
F0.0
sg16
F0.0
sg17
F362096.0
sg18
F0.0
sg19
I00
sg20
F0.0
sg21
F0.0
sg22
F0.0
sg23
F0.0
ssS'NOLES JAMES L'
p302
(dp303
g3
F0.0
sg4
F0.0
sg5
F774401.0
sg6
F0.0
sg7
F774401.0
sg8
F0.0
sg9
F0.0
sg10
I0
sg12
F368705.0
sg13
F0.0
sg14
F0.0
sg15
F0.0
sg16
F0.0
sg17
F0.0
sg18
F0.0
sg19
I00
sg20
F0.0
sg21
F0.0
sg22
F463261.0
sg23
F0.0
ssS'KEAN STEVEN J'
p304
(dp305
g3
F404338.0
sg4
F12754.0
sg5
F0.0
sg6
F0.05725699067909454
sg7
F1747522.0
sg8
F0.010976948408342482
sg9
F1000000.0
sg10
S'steven.kean@enron.com'
p306
sg12
F6153642.0
sg13
F3639.0
sg14
F140.0
sg15
F2022048.0
sg16
F6759.0
sg17
F1231.0
sg18
F387.0
sg19
I00
sg20
F0.0
sg21
F41953.0
sg22
F4131594.0
sg23
F300000.0
ssS'FOWLER PEGGY'
p307
(dp308
g3
F0.0
sg4
F517.0
sg5
F0.0
sg6
F0.0
sg7
F0.0
sg8
F0.0
sg9
F0.0
sg10
S'kulvinder.fowler@enron.com'
p309
sg12
F1884748.0
sg13
F10.0
sg14
F0.0
sg15
F1324578.0
sg16
F36.0
sg17
F0.0
sg18
F0.0
sg19
I00
sg20
F0.0
sg21
F0.0
sg22
F560170.0
sg23
F0.0
ssS'WASAFF GEORGE'
p310
(dp311
g3
F259996.0
sg4
F400.0
sg5
F831299.0
sg6
F0.23333333333333334
sg7
F1034395.0
sg8
F0.055
sg9
F325000.0
sg10
S'george.wasaff@enron.com'
p312
sg12
F2056427.0
sg13
F337.0
sg14
F22.0
sg15
F1668260.0
sg16
F30.0
sg17
F1425.0
sg18
F7.0
sg19
I00
sg20
F-583325.0
sg21
F0.0
sg22
F388167.0
sg23
F200000.0
ssS'WHITE JR THOMAS E'
p313
(dp314
g3
F317543.0
sg4
F0.0
sg5
F0.0
sg6
F0.0
sg7
F1934359.0
sg8
F0.0
sg9
F450000.0
sg10
S'thomas.white@enron.com'
p315
sg12
F15144123.0
sg13
F0.0
sg14
F0.0
sg15
F1297049.0
sg16
F0.0
sg17
F1085463.0
sg18
F0.0
sg19
I00
sg20
F0.0
sg21
F81353.0
sg22
F13847074.0
sg23
F0.0
ssS'CHRISTODOULOU DIOMEDES'
p316
(dp317
g3
F0.0
sg4
F0.0
sg5
F0.0
sg6
F0.0
sg7
F0.0
sg8
F0.0
sg9
F0.0
sg10
S'diomedes.christodoulou@enron.com'
p318
sg12
F6077885.0
sg13
F0.0
sg14
F0.0
sg15
F5127155.0
sg16
F0.0
sg17
F0.0
sg18
F0.0
sg19
I00
sg20
F0.0
sg21
F0.0
sg22
F950730.0
sg23
F0.0
ssS'ALLEN PHILLIP K'
p319
(dp320
g3
F201955.0
sg4
F2902.0
sg5
F2869717.0
sg6
F0.029612756264236904
sg7
F4484442.0
sg8
F0.016195727084769126
sg9
F4175000.0
sg10
S'phillip.allen@enron.com'
p321
sg12
F1729541.0
sg13
F1407.0
sg14
F47.0
sg15
F1729541.0
sg16
F2195.0
sg17
F152.0
sg18
F65.0
sg19
I00
sg20
F-3081055.0
sg21
F13868.0
sg22
F126027.0
sg23
F304805.0
ssS'SHARP VICTORIA T'
p322
(dp323
g3
F248146.0
sg4
F3136.0
sg5
F187469.0
sg6
F0.04411764705882353
sg7
F1576511.0
sg8
F0.007653061224489796
sg9
F600000.0
sg10
S'vicki.sharp@enron.com'
p324
sg12
F494136.0
sg13
F2477.0
sg14
F24.0
sg15
F281073.0
sg16
F136.0
sg17
F2401.0
sg18
F6.0
sg19
I00
sg20
F0.0
sg21
F116337.0
sg22
F213063.0
sg23
F422158.0
ssS'JAEDICKE ROBERT'
p325
(dp326
g3
F0.0
sg4
F0.0
sg5
F0.0
sg6
F0.0
sg7
F83750.0
sg8
F0.0
sg9
F0.0
sg10
I0
sg12
F431750.0
sg13
F0.0
sg14
F0.0
sg15
F431750.0
sg16
F0.0
sg17
F0.0
sg18
F0.0
sg19
I00
sg20
F-25000.0
sg21
F0.0
sg22
F44093.0
sg23
F0.0
ssS'WINOKUR JR. HERBERT S'
p327
(dp328
g3
F0.0
sg4
F0.0
sg5
F0.0
sg6
F0.0
sg7
F84992.0
sg8
F0.0
sg9
F0.0
sg10
I0
sg12
F0.0
sg13
F0.0
sg14
F0.0
sg15
F0.0
sg16
F0.0
sg17
F0.0
sg18
F0.0
sg19
I00
sg20
F-25000.0
sg21
F1413.0
sg22
F0.0
sg23
F0.0
ssS'BROWN MICHAEL'
p329
(dp330
g3
F0.0
sg4
F1486.0
sg5
F0.0
sg6
F0.024390243902439025
sg7
F49288.0
sg8
F0.008748317631224764
sg9
F0.0
sg10
S'michael.brown@enron.com'
p331
sg12
F0.0
sg13
F761.0
sg14
F13.0
sg15
F0.0
sg16
F41.0
sg17
F0.0
sg18
F1.0
sg19
I00
sg20
F0.0
sg21
F49288.0
sg22
F0.0
sg23
F0.0
ssS'BADUM JAMES P'
p332
(dp333
g3
F0.0
sg4
F0.0
sg5
F178980.0
sg6
F0.0
sg7
F182466.0
sg8
F0.0
sg9
F0.0
sg10
I0
sg12
F257817.0
sg13
F0.0
sg14
F0.0
sg15
F257817.0
sg16
F0.0
sg17
F0.0
sg18
F0.0
sg19
I00
sg20
F0.0
sg21
F3486.0
sg22
F0.0
sg23
F0.0
ssS'HUGHES JAMES A'
p334
(dp335
g3
F0.0
sg4
F719.0
sg5
F0.0
sg6
F0.14705882352941177
sg7
F0.0
sg8
F0.048678720445062586
sg9
F0.0
sg10
S'james.hughes@enron.com'
p336
sg12
F1118394.0
sg13
F589.0
sg14
F35.0
sg15
F754966.0
sg16
F34.0
sg17
F0.0
sg18
F5.0
sg19
I00
sg20
F0.0
sg21
F0.0
sg22
F363428.0
sg23
F0.0
ssS'REYNOLDS LAWRENCE'
p337
(dp338
g3
F76399.0
sg4
F0.0
sg5
F51365.0
sg6
F0.0
sg7
F394475.0
sg8
F0.0
sg9
F100000.0
sg10
I0
sg12
F4221891.0
sg13
F0.0
sg14
F0.0
sg15
F4160672.0
sg16
F0.0
sg17
F202052.0
sg18
F0.0
sg19
I00
sg20
F-200000.0
sg21
F8409.0
sg22
F201483.0
sg23
F156250.0
ssS'DIMICHELE RICHARD G'
p339
(dp340
g3
F262788.0
sg4
F0.0
sg5
F0.0
sg6
F0.0
sg7
F2368151.0
sg8
F0.0
sg9
F1000000.0
sg10
S'richard.dimichele@enron.com'
p341
sg12
F8317782.0
sg13
F0.0
sg14
F0.0
sg15
F8191755.0
sg16
F0.0
sg17
F374689.0
sg18
F0.0
sg19
I00
sg20
F0.0
sg21
F35812.0
sg22
F126027.0
sg23
F694862.0
ssS'BHATNAGAR SANJAY'
p342
(dp343
g3
F0.0
sg4
F523.0
sg5
F0.0
sg6
F0.034482758620689655
sg7
F15456290.0
sg8
F0.0
sg9
F0.0
sg10
S'sanjay.bhatnagar@enron.com'
p344
sg12
F0.0
sg13
F463.0
sg14
F0.0
sg15
F2604490.0
sg16
F29.0
sg17
F137864.0
sg18
F1.0
sg19
I00
sg20
F0.0
sg21
F0.0
sg22
F-2604490.0
sg23
F0.0
ssS'CARTER REBECCA C'
p345
(dp346
g3
F261809.0
sg4
F312.0
sg5
F0.0
sg6
F0.4666666666666667
sg7
F477557.0
sg8
F0.09294871794871795
sg9
F300000.0
sg10
S'rebecca.carter@enron.com'
p347
sg12
F0.0
sg13
F196.0
sg14
F29.0
sg15
F0.0
sg16
F15.0
sg17
F540.0
sg18
F7.0
sg19
I00
sg20
F-159792.0
sg21
F0.0
sg22
F307301.0
sg23
F75000.0
ssS'BUCHANAN HAROLD G'
p348
(dp349
g3
F248017.0
sg4
F1088.0
sg5
F0.0
sg6
F0.0
sg7
F1054637.0
sg8
F0.0
sg9
F500000.0
sg10
S'john.buchanan@enron.com'
p350
sg12
F1014505.0
sg13
F23.0
sg14
F0.0
sg15
F825464.0
sg16
F125.0
sg17
F1215.0
sg18
F0.0
sg19
I00
sg20
F0.0
sg21
F600.0
sg22
F189041.0
sg23
F304805.0
ssS'YEAP SOON'
p351
(dp352
g3
F0.0
sg4
F0.0
sg5
F0.0
sg6
F0.0
sg7
F55097.0
sg8
F0.0
sg9
F0.0
sg10
I0
sg12
F192758.0
sg13
F0.0
sg14
F0.0
sg15
F192758.0
sg16
F0.0
sg17
F0.0
sg18
F0.0
sg19
I00
sg20
F0.0
sg21
F55097.0
sg22
F0.0
sg23
F0.0
ssS'MURRAY JULIA H'
p353
(dp354
g3
F229284.0
sg4
F2192.0
sg5
F0.0
sg6
F0.044444444444444446
sg7
F812194.0
sg8
F0.005018248175182482
sg9
F400000.0
sg10
S'julia.murray@enron.com'
p355
sg12
F597461.0
sg13
F395.0
sg14
F11.0
sg15
F400478.0
sg16
F45.0
sg17
F330.0
sg18
F2.0
sg19
I00
sg20
F0.0
sg21
F57580.0
sg22
F196983.0
sg23
F125000.0
ssS'GARLAND C KEVIN'
p356
(dp357
g3
F231946.0
sg4
F209.0
sg5
F0.0
sg6
F0.6136363636363636
sg7
F1566469.0
sg8
F0.04784688995215311
sg9
F850000.0
sg10
S'kevin.garland@enron.com'
p358
sg12
F896153.0
sg13
F178.0
sg14
F10.0
sg15
F636246.0
sg16
F44.0
sg17
F60814.0
sg18
F27.0
sg19
I00
sg20
F0.0
sg21
F48405.0
sg22
F259907.0
sg23
F375304.0
ssS'DODSON KEITH'
p359
(dp360
g3
F221003.0
sg4
F176.0
sg5
F0.0
sg6
F0.21428571428571427
sg7
F319941.0
sg8
F0.056818181818181816
sg9
F70000.0
sg10
S'keith.dodson@enron.com'
p361
sg12
F0.0
sg13
F114.0
sg14
F10.0
sg15
F0.0
sg16
F14.0
sg17
F774.0
sg18
F3.0
sg19
I00
sg20
F0.0
sg21
F28164.0
sg22
F0.0
sg23
F0.0
ssS'YEAGER F SCOTT'
p362
(dp363
g3
F158403.0
sg4
F0.0
sg5
F0.0
sg6
F0.0
sg7
F360300.0
sg8
F0.0
sg9
F0.0
sg10
S'scott.yeager@enron.com'
p364
sg12
F11884758.0
sg13
F0.0
sg14
F0.0
sg15
F8308552.0
sg16
F0.0
sg17
F147950.0
sg18
F0.0
sg19
I01
sg20
F0.0
sg21
F53947.0
sg22
F3576206.0
sg23
F0.0
ssS'HIRKO JOSEPH'
p365
(dp366
g3
F0.0
sg4
F0.0
sg5
F10259.0
sg6
F0.0
sg7
F91093.0
sg8
F0.0
sg9
F0.0
sg10
S'joe.hirko@enron.com'
p367
sg12
F30766064.0
sg13
F0.0
sg14
F0.0
sg15
F30766064.0
sg16
F0.0
sg17
F2856.0
sg18
F0.0
sg19
I01
sg20
F0.0
sg21
F77978.0
sg22
F0.0
sg23
F0.0
ssS'DIETRICH JANET R'
p368
(dp369
g3
F250100.0
sg4
F2572.0
sg5
F0.0
sg6
F0.2222222222222222
sg7
F1410464.0
sg8
F0.11858475894245724
sg9
F600000.0
sg10
S'janet.dietrich@enron.com'
p370
sg12
F1865087.0
sg13
F1902.0
sg14
F305.0
sg15
F1550019.0
sg16
F63.0
sg17
F473.0
sg18
F14.0
sg19
I00
sg20
F0.0
sg21
F3475.0
sg22
F315068.0
sg23
F556416.0
ssS'DERRICK JR. JAMES V'
p371
(dp372
g3
F492375.0
sg4
F2181.0
sg5
F0.0
sg6
F0.022002200220022004
sg7
F550981.0
sg8
F0.029344337459880788
sg9
F800000.0
sg10
S'james.derrick@enron.com'
p373
sg12
F8831913.0
sg13
F1401.0
sg14
F64.0
sg15
F8831913.0
sg16
F909.0
sg17
F7482.0
sg18
F20.0
sg19
I00
sg20
F-1284000.0
sg21
F51124.0
sg22
F1787380.0
sg23
F484000.0
ssS'FREVERT MARK A'
p374
(dp375
g3
F1060932.0
sg4
F3275.0
sg5
F6426990.0
sg6
F0.2857142857142857
sg7
F17252530.0
sg8
F0.07389312977099237
sg9
F2000000.0
sg10
S'mark.frevert@enron.com'
p376
sg12
F14622185.0
sg13
F2979.0
sg14
F242.0
sg15
F10433518.0
sg16
F21.0
sg17
F7427621.0
sg18
F6.0
sg19
I00
sg20
F-3367011.0
sg21
F86987.0
sg22
F4188667.0
sg23
F1617011.0
ssS'PAI LOU L'
p377
(dp378
g3
F261879.0
sg4
F0.0
sg5
F0.0
sg6
F0.0
sg7
F3123383.0
sg8
F0.0
sg9
F1000000.0
sg10
S'lou.pai@enron.com'
p379
sg12
F23817930.0
sg13
F0.0
sg14
F0.0
sg15
F15364167.0
sg16
F0.0
sg17
F1829457.0
sg18
F0.0
sg19
I00
sg20
F0.0
sg21
F32047.0
sg22
F8453763.0
sg23
F0.0
ssS'BAY FRANKLIN R'
p380
(dp381
g3
F239671.0
sg4
F0.0
sg5
F260455.0
sg6
F0.0
sg7
F827696.0
sg8
F0.0
sg9
F400000.0
sg10
S'frank.bay@enron.com'
p382
sg12
F63014.0
sg13
F0.0
sg14
F0.0
sg15
F0.0
sg16
F0.0
sg17
F69.0
sg18
F0.0
sg19
I00
sg20
F-201641.0
sg21
F129142.0
sg22
F145796.0
sg23
F0.0
ssS'HAYSLETT RODERICK J'
p383
(dp384
g3
F0.0
sg4
F2649.0
sg5
F0.0
sg6
F0.03581526861451461
sg7
F0.0
sg8
F0.01321253303133258
sg9
F0.0
sg10
S'rod.hayslett@enron.com'
p385
sg12
F346663.0
sg13
F571.0
sg14
F35.0
sg15
F0.0
sg16
F1061.0
sg17
F0.0
sg18
F38.0
sg19
I00
sg20
F0.0
sg21
F0.0
sg22
F346663.0
sg23
F0.0
ssS'FUGH JOHN L'
p386
(dp387
g3
F0.0
sg4
F0.0
sg5
F50591.0
sg6
F0.0
sg7
F50591.0
sg8
F0.0
sg9
F0.0
sg10
I0
sg12
F176378.0
sg13
F0.0
sg14
F0.0
sg15
F176378.0
sg16
F0.0
sg17
F0.0
sg18
F0.0
sg19
I00
sg20
F0.0
sg21
F0.0
sg22
F0.0
sg23
F0.0
ssS'FALLON JAMES B'
p388
(dp389
g3
F304588.0
sg4
F1755.0
sg5
F0.0
sg6
F0.49333333333333335
sg7
F3676340.0
sg8
F0.023931623931623933
sg9
F2500000.0
sg10
S'jim.fallon@enron.com'
p390
sg12
F2332399.0
sg13
F1604.0
sg14
F42.0
sg15
F940257.0
sg16
F75.0
sg17
F401481.0
sg18
F37.0
sg19
I00
sg20
F0.0
sg21
F95924.0
sg22
F1392142.0
sg23
F374347.0
ssS'KOENIG MARK E'
p391
(dp392
g3
F309946.0
sg4
F2374.0
sg5
F0.0
sg6
F0.2459016393442623
sg7
F1587421.0
sg8
F0.02232518955349621
sg9
F700000.0
sg10
S'mark.koenig@enron.com'
p393
sg12
F1920055.0
sg13
F2271.0
sg14
F53.0
sg15
F671737.0
sg16
F61.0
sg17
F150458.0
sg18
F15.0
sg19
I01
sg20
F0.0
sg21
F127017.0
sg22
F1248318.0
sg23
F300000.0
ssS'SAVAGE FRANK'
p394
(dp395
g3
F0.0
sg4
F0.0
sg5
F0.0
sg6
F0.0
sg7
F3750.0
sg8
F0.0
sg9
F0.0
sg10
I0
sg12
F0.0
sg13
F0.0
sg14
F0.0
sg15
F0.0
sg16
F0.0
sg17
F0.0
sg18
F0.0
sg19
I00
sg20
F-121284.0
sg21
F0.0
sg22
F0.0
sg23
F0.0
ssS'IZZO LAWRENCE L'
p396
(dp397
g3
F85274.0
sg4
F496.0
sg5
F0.0
sg6
F0.2631578947368421
sg7
F1979596.0
sg8
F0.056451612903225805
sg9
F0.0
sg10
S'larry.izzo@enron.com'
p398
sg12
F5819980.0
sg13
F437.0
sg14
F28.0
sg15
F2165172.0
sg16
F19.0
sg17
F1553729.0
sg18
F5.0
sg19
I00
sg20
F0.0
sg21
F28093.0
sg22
F3654808.0
sg23
F312500.0
ssS'TILNEY ELIZABETH A'
p399
(dp400
g3
F247338.0
sg4
F460.0
sg5
F0.0
sg6
F0.5789473684210527
sg7
F399393.0
sg8
F0.021739130434782608
sg9
F300000.0
sg10
S'elizabeth.tilney@enron.com'
p401
sg12
F1168042.0
sg13
F379.0
sg14
F10.0
sg15
F591250.0
sg16
F19.0
sg17
F152055.0
sg18
F11.0
sg19
I00
sg20
F-575000.0
sg21
F0.0
sg22
F576792.0
sg23
F275000.0
ssS'MARTIN AMANDA K'
p402
(dp403
g3
F349487.0
sg4
F1522.0
sg5
F85430.0
sg6
F0.0
sg7
F8407016.0
sg8
F0.005256241787122208
sg9
F0.0
sg10
S'a..martin@enron.com'
p404
sg12
F2070306.0
sg13
F477.0
sg14
F8.0
sg15
F2070306.0
sg16
F230.0
sg17
F2818454.0
sg18
F0.0
sg19
I00
sg20
F0.0
sg21
F8211.0
sg22
F0.0
sg23
F5145434.0
ssS'BUY RICHARD B'
p405
(dp406
g3
F330546.0
sg4
F3523.0
sg5
F649584.0
sg6
F0.06742640075973409
sg7
F2355702.0
sg8
F0.04428044280442804
sg9
F900000.0
sg10
S'rick.buy@enron.com'
p407
sg12
F3444470.0
sg13
F2333.0
sg14
F156.0
sg15
F2542813.0
sg16
F1053.0
sg17
F400572.0
sg18
F71.0
sg19
I00
sg20
F-694862.0
sg21
F0.0
sg22
F901657.0
sg23
F769862.0
ssS'GRAMM WENDY L'
p408
(dp409
g3
F0.0
sg4
F0.0
sg5
F0.0
sg6
F0.0
sg7
F119292.0
sg8
F0.0
sg9
F0.0
sg10
I0
sg12
F0.0
sg13
F0.0
sg14
F0.0
sg15
F0.0
sg16
F0.0
sg17
F0.0
sg18
F0.0
sg19
I00
sg20
F0.0
sg21
F0.0
sg22
F0.0
sg23
F0.0
ssS'CAUSEY RICHARD A'
p410
(dp411
g3
F415189.0
sg4
F1892.0
sg5
F0.0
sg6
F0.24489795918367346
sg7
F1868758.0
sg8
F0.0306553911205074
sg9
F1000000.0
sg10
S'richard.causey@enron.com'
p412
sg12
F2502063.0
sg13
F1585.0
sg14
F58.0
sg15
F0.0
sg16
F49.0
sg17
F307895.0
sg18
F12.0
sg19
I01
sg20
F-235000.0
sg21
F30674.0
sg22
F2502063.0
sg23
F350000.0
ssS'TAYLOR MITCHELL S'
p413
(dp414
g3
F265214.0
sg4
F533.0
sg5
F227449.0
sg6
F0.0
sg7
F1092663.0
sg8
F0.0
sg9
F600000.0
sg10
S'mitchell.taylor@enron.com'
p415
sg12
F3745048.0
sg13
F300.0
sg14
F0.0
sg15
F3181250.0
sg16
F29.0
sg17
F0.0
sg18
F0.0
sg19
I00
sg20
F0.0
sg21
F0.0
sg22
F563798.0
sg23
F0.0
ssS'DONAHUE JR JEFFREY M'
p416
(dp417
g3
F278601.0
sg4
F865.0
sg5
F0.0
sg6
F0.5
sg7
F875760.0
sg8
F0.21734104046242775
sg9
F800000.0
sg10
S'jeff.donahue@enron.com'
p418
sg12
F1080988.0
sg13
F772.0
sg14
F188.0
sg15
F765920.0
sg16
F22.0
sg17
F891.0
sg18
F11.0
sg19
I00
sg20
F-300000.0
sg21
F96268.0
sg22
F315068.0
sg23
F0.0
ssS'GLISAN JR BEN F'
p419
(dp420
g3
F274975.0
sg4
F873.0
sg5
F0.0
sg6
F0.375
sg7
F1272284.0
sg8
F0.05956471935853379
sg9
F600000.0
sg10
S'ben.glisan@enron.com'
p421
sg12
F778546.0
sg13
F874.0
sg14
F52.0
sg15
F384728.0
sg16
F16.0
sg17
F200308.0
sg18
F6.0
sg19
I01
sg20
F0.0
sg21
F125978.0
sg22
F393818.0
sg23
F71023.0
ss.