(lp0
S'poi'
p1
aS'salary'
p2
aS'to_messages'
p3
aS'deferral_payments'
p4
aS'total_payments'
p5
aS'exercised_stock_options'
p6
aS'bonus'
p7
aS'restricted_stock'
p8
aS'shared_receipt_with_poi'
p9
aS'total_stock_value'
p10
aS'expenses'
p11
aS'from_messages'
p12
aS'other'
p13
aS'from_this_person_to_poi'
p14
aS'deferred_income'
p15
aS'long_term_incentive'
p16
aS'from_poi_to_this_person'
p17
aS'fraction_from_poi'
p18
aS'fraction_to_poi'
p19
a.